(dp0
S'WWW'
p1
I561
sS'ABC'
p2
I3327
sS'ZZZ'
p3
I437
sS'OOO'
p4
I1987
sS'TSC'
p5
I6037
sS'SSS'
p6
I1305
sS'TTT'
p7
I200
sS'MMM'
p8
I2422
sS'GGG'
p9
I1938
sS'QQQ'
p10
I2248
sS'EEE'
p11
I2185
sS'JRS'
p12
I2701
sS'RRR'
p13
I400
s.