(dp0
S'WWW'
p1
I174
sS'ABC'
p2
I599
sS'AAA'
p3
I505
sS'OVM'
p4
I2844
sS'TSC'
p5
I3315
sS'ALC'
p6
I1296
sS'GDB'
p7
I5311
sS'***'
p8
I0
sS'TTT'
p9
I125
sS'RRR'
p10
I2167
sS'###'
p11
I0
sS'$$$'
p12
I0
s.